Certificate:
    Data:
        Version: 3 (0x2)
        Serial Number: 2 (0x2)
    Signature Algorithm: sha256WithRSAEncryption
        Issuer: C=US, ST=CA, L=SanFrancisco, O=Fort-Funston, OU=MyOrganizationalUnit, CN=Fort-Funston CA/name=EasyRSA/emailAddress=me@myhost.mydomain
        Validity
            Not Before: Feb  4 08:47:07 2023 GMT
            Not After : Feb  1 08:47:07 2033 GMT
        Subject: C=US, ST=CA, L=SanFrancisco, O=Fort-Funston, OU=MyOrganizationalUnit, CN=myclient/name=EasyRSA/emailAddress=me@myhost.mydomain
        Subject Public Key Info:
            Public Key Algorithm: rsaEncryption
                Public-Key: (2048 bit)
                Modulus:
                    00:ab:60:76:7f:c0:be:2f:77:ea:69:09:7a:53:3b:
                    38:a9:49:53:05:45:ec:8e:46:03:4d:21:e4:6c:ee:
                    6a:a2:67:d1:dd:44:3f:ff:da:7d:f7:45:93:a4:33:
                    68:25:b2:8e:5f:1c:7f:a1:b5:8b:af:34:3b:ce:6b:
                    65:f7:c4:a2:fd:4d:40:2b:ae:6e:51:f5:95:a9:8b:
                    94:98:dc:3c:6e:e5:94:5e:78:13:75:a7:db:3b:44:
                    d6:bc:99:42:0e:61:05:98:57:43:86:29:1a:20:12:
                    10:d1:c7:b7:2b:c0:f8:e9:49:24:a1:92:dc:38:0c:
                    85:49:39:50:a8:b5:5d:35:e9:30:6b:56:60:10:c1:
                    24:8d:9b:a8:0f:85:6d:e6:55:dc:4d:88:b5:35:c7:
                    ca:9f:77:6e:5c:81:ae:15:40:32:e4:fa:c6:de:00:
                    9c:a0:d9:04:2c:09:3f:82:74:be:a6:2d:a9:64:d1:
                    0b:ef:04:47:12:91:77:8e:da:23:5d:25:21:8d:a9:
                    7c:d0:a2:51:26:24:cb:78:b0:9c:1b:a0:f6:8c:91:
                    7f:cf:c0:f6:d8:f0:b5:e7:00:86:a3:4d:b8:08:8b:
                    e7:0b:1c:62:bd:62:56:1d:c9:ff:3b:4a:a9:21:b8:
                    48:77:5e:5d:7a:d4:05:97:dd:8b:96:78:01:25:e8:
                    4f:75
                Exponent: 65537 (0x10001)
        X509v3 extensions:
            X509v3 Basic Constraints: 
                CA:FALSE
            Netscape Comment: 
                Easy-RSA Generated Certificate
            X509v3 Subject Key Identifier: 
                CE:43:81:50:75:DB:48:BC:8D:CC:89:82:F4:CB:65:75:27:74:56:B0
            X509v3 Authority Key Identifier: 
                keyid:A7:6D:CF:91:83:A3:5F:4C:06:D5:C0:D6:A3:01:D5:88:2B:6C:F2:E3
                DirName:/C=US/ST=CA/L=SanFrancisco/O=Fort-Funston/OU=MyOrganizationalUnit/CN=Fort-Funston CA/name=EasyRSA/emailAddress=me@myhost.mydomain
                serial:E4:B4:52:D2:81:31:97:AA

            X509v3 Extended Key Usage: 
                TLS Web Client Authentication
            X509v3 Key Usage: 
                Digital Signature
            X509v3 Subject Alternative Name: 
                DNS:myclient
    Signature Algorithm: sha256WithRSAEncryption
         38:f9:84:00:f9:de:18:8e:6c:dd:54:a9:b3:5c:60:b5:c2:03:
         3e:07:2e:4c:f1:23:cd:6c:07:6c:7e:97:6e:49:9f:fd:c5:3e:
         b2:f0:c6:30:63:33:b9:35:59:61:8e:8d:0a:7c:50:7a:da:ee:
         3c:07:1a:b9:e5:0b:c8:7b:c0:c5:13:73:39:7a:8c:7a:82:21:
         df:e2:24:fd:fe:5c:58:d5:c7:6c:45:c7:3c:e4:f1:49:60:a8:
         63:69:e3:5f:76:6b:d7:12:ce:a2:b3:1b:73:d4:76:e2:4f:e1:
         ca:a3:ee:71:3d:39:09:b3:b0:fb:94:91:87:b2:77:86:18:55:
         06:01:8c:e7:43:06:f3:2d:f4:c0:dc:b4:ee:c5:a9:77:da:e7:
         c0:2f:2a:6b:a0:e6:5c:a7:2f:ec:be:24:82:ed:c4:04:ee:4e:
         43:56:7c:54:05:80:0b:b5:23:6b:1e:64:f2:39:e0:f4:70:ba:
         0c:08:e2:f9:80:e1:7a:a9:18:35:85:9d:b9:2e:e2:d4:da:77:
         35:1a:6a:f3:9f:34:f2:e7:44:3b:0f:84:3f:de:1b:7d:b2:83:
         ae:8a:7a:8e:3d:d7:aa:32:64:fc:0b:8e:9b:32:33:01:27:01:
         78:ff:84:c2:ee:03:72:57:ae:8c:10:1b:b4:ea:7e:c7:27:f8:
         84:5c:02:33
-----BEGIN CERTIFICATE-----
MIIFZjCCBE6gAwIBAgIBAjANBgkqhkiG9w0BAQsFADCBtjELMAkGA1UEBhMCVVMx
CzAJBgNVBAgTAkNBMRUwEwYDVQQHEwxTYW5GcmFuY2lzY28xFTATBgNVBAoTDEZv
cnQtRnVuc3RvbjEdMBsGA1UECxMUTXlPcmdhbml6YXRpb25hbFVuaXQxGDAWBgNV
BAMTD0ZvcnQtRnVuc3RvbiBDQTEQMA4GA1UEKRMHRWFzeVJTQTEhMB8GCSqGSIb3
DQEJARYSbWVAbXlob3N0Lm15ZG9tYWluMB4XDTIzMDIwNDA4NDcwN1oXDTMzMDIw
MTA4NDcwN1owga8xCzAJBgNVBAYTAlVTMQswCQYDVQQIEwJDQTEVMBMGA1UEBxMM
U2FuRnJhbmNpc2NvMRUwEwYDVQQKEwxGb3J0LUZ1bnN0b24xHTAbBgNVBAsTFE15
T3JnYW5pemF0aW9uYWxVbml0MREwDwYDVQQDEwhteWNsaWVudDEQMA4GA1UEKRMH
RWFzeVJTQTEhMB8GCSqGSIb3DQEJARYSbWVAbXlob3N0Lm15ZG9tYWluMIIBIjAN
BgkqhkiG9w0BAQEFAAOCAQ8AMIIBCgKCAQEAq2B2f8C+L3fqaQl6Uzs4qUlTBUXs
jkYDTSHkbO5qomfR3UQ//9p990WTpDNoJbKOXxx/obWLrzQ7zmtl98Si/U1AK65u
UfWVqYuUmNw8buWUXngTdafbO0TWvJlCDmEFmFdDhikaIBIQ0ce3K8D46UkkoZLc
OAyFSTlQqLVdNekwa1ZgEMEkjZuoD4Vt5lXcTYi1NcfKn3duXIGuFUAy5PrG3gCc
oNkELAk/gnS+pi2pZNEL7wRHEpF3jtojXSUhjal80KJRJiTLeLCcG6D2jJF/z8D2
2PC15wCGo024CIvnCxxivWJWHcn/O0qpIbhId15detQFl92LlngBJehPdQIDAQAB
o4IBgjCCAX4wCQYDVR0TBAIwADAtBglghkgBhvhCAQ0EIBYeRWFzeS1SU0EgR2Vu
ZXJhdGVkIENlcnRpZmljYXRlMB0GA1UdDgQWBBTOQ4FQddtIvI3MiYL0y2V1J3RW
sDCB6wYDVR0jBIHjMIHggBSnbc+Rg6NfTAbVwNajAdWIK2zy46GBvKSBuTCBtjEL
MAkGA1UEBhMCVVMxCzAJBgNVBAgTAkNBMRUwEwYDVQQHEwxTYW5GcmFuY2lzY28x
FTATBgNVBAoTDEZvcnQtRnVuc3RvbjEdMBsGA1UECxMUTXlPcmdhbml6YXRpb25h
bFVuaXQxGDAWBgNVBAMTD0ZvcnQtRnVuc3RvbiBDQTEQMA4GA1UEKRMHRWFzeVJT
QTEhMB8GCSqGSIb3DQEJARYSbWVAbXlob3N0Lm15ZG9tYWluggkA5LRS0oExl6ow
EwYDVR0lBAwwCgYIKwYBBQUHAwIwCwYDVR0PBAQDAgeAMBMGA1UdEQQMMAqCCG15
Y2xpZW50MA0GCSqGSIb3DQEBCwUAA4IBAQA4+YQA+d4YjmzdVKmzXGC1wgM+By5M
8SPNbAdsfpduSZ/9xT6y8MYwYzO5NVlhjo0KfFB62u48Bxq55QvIe8DFE3M5eox6
giHf4iT9/lxY1cdsRcc85PFJYKhjaeNfdmvXEs6isxtz1HbiT+HKo+5xPTkJs7D7
lJGHsneGGFUGAYznQwbzLfTA3LTuxal32ufALyproOZcpy/sviSC7cQE7k5DVnxU
BYALtSNrHmTyOeD0cLoMCOL5gOF6qRg1hZ25LuLU2nc1GmrznzTy50Q7D4Q/3ht9
soOuinqOPdeqMmT8C46bMjMBJwF4/4TC7gNyV66MEBu06n7HJ/iEXAIz
-----END CERTIFICATE-----
